target datalayout = "e-m:e-p270:32:32-p271:32:32-p272:64:64-i64:64-i128:128-f80:128-n8:16:32:64-S128"
target triple = "x86_64-pc-linux-gnu"

%union.SourceSpan = type { i64 }
%struct.VHeader_ = type { i32, i32, [0 x i8] }
%struct.Attr = type { ptr, ptr, %union.SourceSpan, i16, ptr }

@.str.31 = private unnamed_addr constant [26 x i8] c"'%s' cannot be used here.\00", align 1
@.str.32 = private unnamed_addr constant [32 x i8] c"'@builtin' cannot be used here.\00", align 1
@.str.33 = private unnamed_addr constant [49 x i8] c"Only a single visibility attribute may be added.\00", align 1
@.str.34 = private unnamed_addr constant [31 x i8] c"Repeat of attribute '%s' here.\00", align 1

; Function Attrs: nounwind uwtable
define internal ptr @vec_new_(i64 noundef %0, i64 noundef %1) #0 {
  %3 = alloca i64, align 8
  %4 = alloca i64, align 8
  %5 = alloca ptr, align 8
  store i64 %0, ptr %3, align 8
  store i64 %1, ptr %4, align 8
  %6 = load i64, ptr %3, align 8
  %7 = load i64, ptr %4, align 8
  %8 = mul i64 %6, %7
  %9 = add i64 %8, 8
  %10 = call ptr @calloc_arena(i64 noundef %9)
  store ptr %10, ptr %5, align 8
  %11 = load i64, ptr %4, align 8
  %12 = trunc i64 %11 to i32
  %13 = load ptr, ptr %5, align 8
  %14 = getelementptr inbounds %struct.VHeader_, ptr %13, i32 0, i32 1
  store i32 %12, ptr %14, align 4
  %15 = load ptr, ptr %5, align 8
  ret ptr %15
}

; Function Attrs: nounwind uwtable
define internal ptr @expand_(ptr noundef %0, i64 noundef %1) #0 {
  %3 = alloca ptr, align 8
  %4 = alloca i64, align 8
  %5 = alloca ptr, align 8
  %6 = alloca ptr, align 8
  %7 = alloca i64, align 8
  store ptr %0, ptr %3, align 8
  store i64 %1, ptr %4, align 8
  %8 = load ptr, ptr %3, align 8
  %9 = icmp ne ptr %8, null
  br i1 %9, label %13, label %10

10:                                               ; preds = %2
  %11 = load i64, ptr %4, align 8
  %12 = call ptr @vec_new_(i64 noundef %11, i64 noundef 8)
  store ptr %12, ptr %5, align 8
  br label %16

13:                                               ; preds = %2
  %14 = load ptr, ptr %3, align 8
  %15 = getelementptr inbounds %struct.VHeader_, ptr %14, i64 -1
  store ptr %15, ptr %5, align 8
  br label %16

16:                                               ; preds = %13, %10
  %17 = load ptr, ptr %5, align 8
  %18 = getelementptr inbounds %struct.VHeader_, ptr %17, i32 0, i32 0
  %19 = load i32, ptr %18, align 4
  %20 = load ptr, ptr %5, align 8
  %21 = getelementptr inbounds %struct.VHeader_, ptr %20, i32 0, i32 1
  %22 = load i32, ptr %21, align 4
  %23 = icmp eq i32 %19, %22
  br i1 %23, label %24, label %49

24:                                               ; preds = %16
  %25 = load i64, ptr %4, align 8
  %26 = load ptr, ptr %5, align 8
  %27 = getelementptr inbounds %struct.VHeader_, ptr %26, i32 0, i32 1
  %28 = load i32, ptr %27, align 4
  %29 = shl i32 %28, 1
  %30 = zext i32 %29 to i64
  %31 = call ptr @vec_new_(i64 noundef %25, i64 noundef %30)
  store ptr %31, ptr %6, align 8
  %32 = load i64, ptr %4, align 8
  %33 = load ptr, ptr %5, align 8
  %34 = getelementptr inbounds %struct.VHeader_, ptr %33, i32 0, i32 1
  %35 = load i32, ptr %34, align 4
  %36 = zext i32 %35 to i64
  %37 = mul i64 %32, %36
  %38 = add i64 %37, 8
  store i64 %38, ptr %7, align 8
  %39 = load ptr, ptr %6, align 8
  %40 = load ptr, ptr %5, align 8
  %41 = load i64, ptr %7, align 8
  call void @llvm.memcpy.p0.p0.i64(ptr align 4 %39, ptr align 4 %40, i64 %41, i1 false)
  %42 = load ptr, ptr %6, align 8
  store ptr %42, ptr %5, align 8
  %43 = load ptr, ptr %5, align 8
  %44 = getelementptr inbounds %struct.VHeader_, ptr %43, i32 0, i32 1
  %45 = load i32, ptr %44, align 4
  %46 = shl i32 %45, 1
  %47 = load ptr, ptr %6, align 8
  %48 = getelementptr inbounds %struct.VHeader_, ptr %47, i32 0, i32 1
  store i32 %46, ptr %48, align 4
  br label %49

49:                                               ; preds = %24, %16
  %50 = load ptr, ptr %5, align 8
  %51 = getelementptr inbounds %struct.VHeader_, ptr %50, i32 0, i32 0
  %52 = load i32, ptr %51, align 4
  %53 = add i32 %52, 1
  store i32 %53, ptr %51, align 4
  %54 = load ptr, ptr %5, align 8
  %55 = getelementptr inbounds %struct.VHeader_, ptr %54, i64 1
  ret ptr %55
}

; Function Attrs: nounwind uwtable
define dso_local zeroext i1 @parse_attributes(ptr noundef %0, ptr noundef %1, ptr noundef %2, ptr noundef %3, ptr noundef %4) #0 {
  %6 = alloca i32, align 4
  %7 = alloca ptr, align 8
  %8 = alloca ptr, align 8
  %9 = alloca i32, align 4
  %10 = alloca ptr, align 8
  %11 = alloca ptr, align 8
  %12 = alloca i1, align 1
  %13 = alloca ptr, align 8
  %14 = alloca ptr, align 8
  %15 = alloca ptr, align 8
  %16 = alloca ptr, align 8
  %17 = alloca ptr, align 8
  %18 = alloca i32, align 4
  %19 = alloca ptr, align 8
  %20 = alloca i8, align 1
  %21 = alloca i32, align 4
  %22 = alloca ptr, align 8
  %23 = alloca ptr, align 8
  %24 = alloca i32, align 4
  %25 = alloca i32, align 4
  %26 = alloca ptr, align 8
  %27 = alloca ptr, align 8
  store ptr %0, ptr %13, align 8
  store ptr %1, ptr %14, align 8
  store ptr %2, ptr %15, align 8
  store ptr %3, ptr %16, align 8
  store ptr %4, ptr %17, align 8
  store i32 -1, ptr %18, align 4
  %28 = load ptr, ptr %17, align 8
  %29 = icmp ne ptr %28, null
  br i1 %29, label %30, label %32

30:                                               ; preds = %5
  %31 = load ptr, ptr %17, align 8
  store i8 0, ptr %31, align 1
  br label %32

32:                                               ; preds = %30, %5
  br label %33

33:                                               ; preds = %190, %115, %87, %32
  %34 = load ptr, ptr %13, align 8
  %35 = call zeroext i1 @parse_attribute(ptr noundef %34, ptr noundef %19, i1 noundef zeroext false)
  br i1 %35, label %37, label %36

36:                                               ; preds = %33
  store i1 false, ptr %12, align 1
  br label %191

37:                                               ; preds = %33
  %38 = load ptr, ptr %19, align 8
  %39 = icmp ne ptr %38, null
  br i1 %39, label %41, label %40

40:                                               ; preds = %37
  store i1 true, ptr %12, align 1
  br label %191

41:                                               ; preds = %37
  store i8 0, ptr %20, align 1
  store i32 -1, ptr %21, align 4
  %42 = load ptr, ptr %19, align 8
  %43 = getelementptr inbounds %struct.Attr, ptr %42, i32 0, i32 3
  %44 = load i16, ptr %43, align 8
  %45 = lshr i16 %44, 8
  %46 = and i16 %45, 1
  %47 = trunc i16 %46 to i1
  br i1 %47, label %119, label %48

48:                                               ; preds = %41
  %49 = load ptr, ptr %19, align 8
  %50 = getelementptr inbounds %struct.Attr, ptr %49, i32 0, i32 3
  %51 = load i16, ptr %50, align 8
  %52 = and i16 %51, 255
  %53 = zext i16 %52 to i32
  switch i32 %53, label %73 [
    i32 30, label %54
    i32 29, label %55
    i32 16, label %56
    i32 3, label %57
    i32 11, label %58
  ]

54:                                               ; preds = %48
  store i32 0, ptr %21, align 4
  br label %74

55:                                               ; preds = %48
  store i32 1, ptr %21, align 4
  br label %74

56:                                               ; preds = %48
  store i32 2, ptr %21, align 4
  br label %74

57:                                               ; preds = %48
  store i8 1, ptr %20, align 1
  br label %74

58:                                               ; preds = %48
  %59 = load ptr, ptr %17, align 8
  %60 = icmp ne ptr %59, null
  br i1 %60, label %71, label %61

61:                                               ; preds = %58
  br label %62

62:                                               ; preds = %61
  %63 = load ptr, ptr %19, align 8
  %64 = getelementptr inbounds %struct.Attr, ptr %63, i32 0, i32 2
  %65 = load ptr, ptr %19, align 8
  %66 = getelementptr inbounds %struct.Attr, ptr %65, i32 0, i32 1
  %67 = load ptr, ptr %66, align 8
  %68 = getelementptr inbounds %union.SourceSpan, ptr %64, i32 0, i32 0
  %69 = load i64, ptr %68, align 8
  call void (i64, ptr, ...) @sema_error_at(i64 %69, ptr noundef @.str.31, ptr noundef %67)
  store i1 false, ptr %12, align 1
  br label %191

70:                                               ; No predecessors!
  br label %71

71:                                               ; preds = %70, %58
  %72 = load ptr, ptr %17, align 8
  store i8 1, ptr %72, align 1
  br label %74

73:                                               ; preds = %48
  br label %74

74:                                               ; preds = %73, %71, %57, %56, %55, %54
  %75 = load i8, ptr %20, align 1
  %76 = trunc i8 %75 to i1
  br i1 %76, label %77, label %89

77:                                               ; preds = %74
  %78 = load ptr, ptr %16, align 8
  %79 = icmp ne ptr %78, null
  br i1 %79, label %87, label %80

80:                                               ; preds = %77
  br label %81

81:                                               ; preds = %80
  %82 = load ptr, ptr %19, align 8
  %83 = getelementptr inbounds %struct.Attr, ptr %82, i32 0, i32 2
  %84 = getelementptr inbounds %union.SourceSpan, ptr %83, i32 0, i32 0
  %85 = load i64, ptr %84, align 8
  call void (i64, ptr, ...) @sema_error_at(i64 %85, ptr noundef @.str.32)
  store i1 false, ptr %12, align 1
  br label %191

86:                                               ; No predecessors!
  br label %87

87:                                               ; preds = %86, %77
  %88 = load ptr, ptr %16, align 8
  store i8 1, ptr %88, align 1
  br label %33

89:                                               ; preds = %74
  %90 = load i32, ptr %21, align 4
  %91 = icmp ne i32 %90, -1
  br i1 %91, label %92, label %118

92:                                               ; preds = %89
  %93 = load ptr, ptr %15, align 8
  %94 = icmp ne ptr %93, null
  br i1 %94, label %105, label %95

95:                                               ; preds = %92
  br label %96

96:                                               ; preds = %95
  %97 = load ptr, ptr %19, align 8
  %98 = getelementptr inbounds %struct.Attr, ptr %97, i32 0, i32 2
  %99 = load ptr, ptr %19, align 8
  %100 = getelementptr inbounds %struct.Attr, ptr %99, i32 0, i32 1
  %101 = load ptr, ptr %100, align 8
  %102 = getelementptr inbounds %union.SourceSpan, ptr %98, i32 0, i32 0
  %103 = load i64, ptr %102, align 8
  call void (i64, ptr, ...) @sema_error_at(i64 %103, ptr noundef @.str.31, ptr noundef %101)
  store i1 false, ptr %12, align 1
  br label %191

104:                                              ; No predecessors!
  br label %105

105:                                              ; preds = %104, %92
  %106 = load i32, ptr %18, align 4
  %107 = icmp ne i32 %106, -1
  br i1 %107, label %108, label %115

108:                                              ; preds = %105
  br label %109

109:                                              ; preds = %108
  %110 = load ptr, ptr %19, align 8
  %111 = getelementptr inbounds %struct.Attr, ptr %110, i32 0, i32 2
  %112 = getelementptr inbounds %union.SourceSpan, ptr %111, i32 0, i32 0
  %113 = load i64, ptr %112, align 8
  call void (i64, ptr, ...) @sema_error_at(i64 %113, ptr noundef @.str.33)
  store i1 false, ptr %12, align 1
  br label %191

114:                                              ; No predecessors!
  br label %115

115:                                              ; preds = %114, %105
  %116 = load i32, ptr %21, align 4
  store i32 %116, ptr %18, align 4
  %117 = load ptr, ptr %15, align 8
  store i32 %116, ptr %117, align 4
  br label %33

118:                                              ; preds = %89
  br label %119

119:                                              ; preds = %118, %41
  %120 = load ptr, ptr %19, align 8
  %121 = getelementptr inbounds %struct.Attr, ptr %120, i32 0, i32 1
  %122 = load ptr, ptr %121, align 8
  store ptr %122, ptr %22, align 8
  %123 = load ptr, ptr %14, align 8
  %124 = load ptr, ptr %123, align 8
  store ptr %124, ptr %23, align 8
  %125 = load ptr, ptr %23, align 8
  store ptr %125, ptr %7, align 8
  %126 = load ptr, ptr %7, align 8
  %127 = icmp ne ptr %126, null
  br i1 %127, label %129, label %128

128:                                              ; preds = %119
  store i32 0, ptr %6, align 4
  br label %134

129:                                              ; preds = %119
  %130 = load ptr, ptr %7, align 8
  store ptr %130, ptr %8, align 8
  %131 = load ptr, ptr %8, align 8
  %132 = getelementptr inbounds %struct.VHeader_, ptr %131, i64 -1
  %133 = load i32, ptr %132, align 4
  store i32 %133, ptr %6, align 4
  br label %134

134:                                              ; preds = %129, %128
  %135 = load i32, ptr %6, align 4
  store i32 %135, ptr %24, align 4
  store i32 0, ptr %25, align 4
  br label %136

136:                                              ; preds = %160, %134
  %137 = load i32, ptr %25, align 4
  %138 = load i32, ptr %24, align 4
  %139 = icmp ult i32 %137, %138
  br i1 %139, label %140, label %163

140:                                              ; preds = %136
  %141 = load ptr, ptr %23, align 8
  %142 = load i32, ptr %25, align 4
  %143 = zext i32 %142 to i64
  %144 = getelementptr inbounds ptr, ptr %141, i64 %143
  %145 = load ptr, ptr %144, align 8
  store ptr %145, ptr %26, align 8
  %146 = load ptr, ptr %26, align 8
  %147 = getelementptr inbounds %struct.Attr, ptr %146, i32 0, i32 1
  %148 = load ptr, ptr %147, align 8
  %149 = load ptr, ptr %22, align 8
  %150 = icmp eq ptr %148, %149
  br i1 %150, label %151, label %159

151:                                              ; preds = %140
  br label %152

152:                                              ; preds = %151
  %153 = load ptr, ptr %19, align 8
  %154 = getelementptr inbounds %struct.Attr, ptr %153, i32 0, i32 2
  %155 = load ptr, ptr %22, align 8
  %156 = getelementptr inbounds %union.SourceSpan, ptr %154, i32 0, i32 0
  %157 = load i64, ptr %156, align 8
  call void (i64, ptr, ...) @sema_error_at(i64 %157, ptr noundef @.str.34, ptr noundef %155)
  store i1 false, ptr %12, align 1
  br label %191

158:                                              ; No predecessors!
  br label %159

159:                                              ; preds = %158, %140
  br label %160

160:                                              ; preds = %159
  %161 = load i32, ptr %25, align 4
  %162 = add i32 %161, 1
  store i32 %162, ptr %25, align 4
  br label %136, !llvm.loop !12

163:                                              ; preds = %136
  br label %164

164:                                              ; preds = %163
  br label %165

165:                                              ; preds = %164
  br label %166

166:                                              ; preds = %165
  %167 = load ptr, ptr %14, align 8
  %168 = load ptr, ptr %167, align 8
  %169 = call ptr @expand_(ptr noundef %168, i64 noundef 8)
  store ptr %169, ptr %27, align 8
  %170 = load ptr, ptr %27, align 8
  %171 = load ptr, ptr %14, align 8
  store ptr %170, ptr %171, align 8
  %172 = load ptr, ptr %19, align 8
  %173 = load ptr, ptr %14, align 8
  %174 = load ptr, ptr %173, align 8
  %175 = load ptr, ptr %14, align 8
  %176 = load ptr, ptr %175, align 8
  store ptr %176, ptr %10, align 8
  %177 = load ptr, ptr %10, align 8
  %178 = icmp ne ptr %177, null
  br i1 %178, label %180, label %179

179:                                              ; preds = %166
  store i32 0, ptr %9, align 4
  br label %185

180:                                              ; preds = %166
  %181 = load ptr, ptr %10, align 8
  store ptr %181, ptr %11, align 8
  %182 = load ptr, ptr %11, align 8
  %183 = getelementptr inbounds %struct.VHeader_, ptr %182, i64 -1
  %184 = load i32, ptr %183, align 4
  store i32 %184, ptr %9, align 4
  br label %185

185:                                              ; preds = %180, %179
  %186 = load i32, ptr %9, align 4
  %187 = sub i32 %186, 1
  %188 = zext i32 %187 to i64
  %189 = getelementptr inbounds ptr, ptr %174, i64 %188
  store ptr %172, ptr %189, align 8
  br label %190

190:                                              ; preds = %185
  br label %33

191:                                              ; preds = %152, %109, %96, %81, %62, %40, %36
  %192 = load i1, ptr %12, align 1
  ret i1 %192
}