; Function Attrs: nounwind uwtable
define dso_local noundef zeroext i1 @parse_attributes(ptr noundef %0, ptr nocapture noundef %1, ptr noundef writeonly %2, ptr noundef writeonly %3, ptr noundef writeonly %4) local_unnamed_addr #0 {
  %6 = alloca ptr, align 8
  %.not = icmp eq ptr %4, null
  br i1 %.not, label %8, label %7

7:                                                ; preds = %5
  store i8 0, ptr %4, align 1
  br label %8

8:                                                ; preds = %7, %5
  %9 = call zeroext i1 @parse_attribute(ptr noundef %0, ptr noundef nonnull %6, i1 noundef zeroext false)
  br i1 %9, label %.lr.ph77.lr.ph, label %.loopexit

.lr.ph77.lr.ph:                                   ; preds = %8
  %.not54 = icmp eq ptr %3, null
  %.not52 = icmp eq ptr %2, null
  br label %.lr.ph77

.lr.ph77:                                         ; preds = %.lr.ph77.lr.ph, %.outer
  %.039.ph81 = phi i1 [ true, %.lr.ph77.lr.ph ], [ false, %.outer ]
  br label %10

10:                                               ; preds = %.lr.ph77, %.backedge
  %11 = load ptr, ptr %6, align 8
  %.not49 = icmp eq ptr %11, null
  br i1 %.not49, label %.loopexit, label %12

12:                                               ; preds = %10
  %13 = getelementptr inbounds i8, ptr %11, i64 24
  %14 = load i16, ptr %13, align 8
  %15 = and i16 %14, 256
  %.not50 = icmp eq i16 %15, 0
  br i1 %.not50, label %16, label %40

16:                                               ; preds = %12
  %trunc = trunc i16 %14 to i8
  switch i8 %trunc, label %40 [
    i8 30, label %.loopexit67.loopexit
    i8 29, label %.loopexit67.loopexit123
    i8 16, label %.loopexit67
    i8 3, label %24
    i8 11, label %17
  ]

17:                                               ; preds = %16
  br i1 %.not, label %18, label %23

18:                                               ; preds = %17
  %19 = getelementptr inbounds i8, ptr %11, i64 16
  %20 = getelementptr inbounds i8, ptr %11, i64 8
  %21 = load ptr, ptr %20, align 8
  %22 = load i64, ptr %19, align 8
  tail call void (i64, ptr, ...) @sema_error_at(i64 %22, ptr noundef nonnull @.str.31, ptr noundef %21) #8
  br label %.loopexit

23:                                               ; preds = %17
  store i8 1, ptr %4, align 1
  br label %40

24:                                               ; preds = %16
  br i1 %.not54, label %25, label %28

25:                                               ; preds = %24
  %26 = getelementptr inbounds i8, ptr %11, i64 16
  %27 = load i64, ptr %26, align 8
  tail call void (i64, ptr, ...) @sema_error_at(i64 %27, ptr noundef nonnull @.str.32) #8
  br label %.loopexit

28:                                               ; preds = %24
  store i8 1, ptr %3, align 1
  br label %.backedge

.backedge:                                        ; preds = %28, %77
  %29 = call zeroext i1 @parse_attribute(ptr noundef %0, ptr noundef nonnull %6, i1 noundef zeroext false)
  br i1 %29, label %10, label %.loopexit

.loopexit67.loopexit:                             ; preds = %16
  br label %.loopexit67

.loopexit67.loopexit123:                          ; preds = %16
  br label %.loopexit67

.loopexit67:                                      ; preds = %16, %.loopexit67.loopexit123, %.loopexit67.loopexit
  %.041.ph.ph = phi i32 [ 0, %.loopexit67.loopexit ], [ 1, %.loopexit67.loopexit123 ], [ 2, %16 ]
  br i1 %.not52, label %30, label %35

30:                                               ; preds = %.loopexit67
  %31 = getelementptr inbounds i8, ptr %11, i64 16
  %32 = getelementptr inbounds i8, ptr %11, i64 8
  %33 = load ptr, ptr %32, align 8
  %34 = load i64, ptr %31, align 8
  tail call void (i64, ptr, ...) @sema_error_at(i64 %34, ptr noundef nonnull @.str.31, ptr noundef %33) #8
  br label %.loopexit

35:                                               ; preds = %.loopexit67
  br i1 %.039.ph81, label %.outer, label %36

36:                                               ; preds = %35
  %37 = getelementptr inbounds i8, ptr %11, i64 16
  %38 = load i64, ptr %37, align 8
  tail call void (i64, ptr, ...) @sema_error_at(i64 %38, ptr noundef nonnull @.str.33) #8
  br label %.loopexit

.outer:                                           ; preds = %35
  store i32 %.041.ph.ph, ptr %2, align 4
  %39 = call zeroext i1 @parse_attribute(ptr noundef %0, ptr noundef nonnull %6, i1 noundef zeroext false)
  br i1 %39, label %.lr.ph77, label %.loopexit

40:                                               ; preds = %23, %16, %12
  %41 = getelementptr inbounds i8, ptr %11, i64 8
  %42 = load ptr, ptr %41, align 8
  %43 = load ptr, ptr %1, align 8
  %.not55 = icmp eq ptr %43, null
  br i1 %.not55, label %._crit_edge, label %44

44:                                               ; preds = %40
  %45 = getelementptr inbounds i8, ptr %43, i64 -8
  %46 = load i32, ptr %45, align 4
  %.not83 = icmp eq i32 %46, 0
  br i1 %.not83, label %.loopexit99, label %.lr.ph.preheader

.lr.ph.preheader:                                 ; preds = %44
  %wide.trip.count = zext i32 %46 to i64
  br label %.lr.ph

47:                                               ; preds = %.lr.ph
  %indvars.iv.next = add nuw nsw i64 %indvars.iv, 1
  %exitcond.not = icmp eq i64 %indvars.iv.next, %wide.trip.count
  br i1 %exitcond.not, label %.loopexit99, label %.lr.ph, !llvm.loop !11

.lr.ph:                                           ; preds = %.lr.ph.preheader, %47
  %indvars.iv = phi i64 [ 0, %.lr.ph.preheader ], [ %indvars.iv.next, %47 ]
  %48 = getelementptr inbounds ptr, ptr %43, i64 %indvars.iv
  %49 = load ptr, ptr %48, align 8
  %50 = getelementptr inbounds i8, ptr %49, i64 8
  %51 = load ptr, ptr %50, align 8
  %52 = icmp eq ptr %51, %42
  br i1 %52, label %53, label %47

53:                                               ; preds = %.lr.ph
  %54 = getelementptr inbounds i8, ptr %11, i64 16
  %55 = load i64, ptr %54, align 8
  tail call void (i64, ptr, ...) @sema_error_at(i64 %55, ptr noundef nonnull @.str.34, ptr noundef %42) #8
  br label %.loopexit

._crit_edge:                                      ; preds = %40
  %56 = tail call ptr @calloc_arena(i64 noundef 72) #8
  %57 = getelementptr inbounds i8, ptr %56, i64 4
  store i32 8, ptr %57, align 4
  br label %59

.loopexit99:                                      ; preds = %47, %44
  %58 = getelementptr inbounds i8, ptr %43, i64 -8
  %.phi.trans.insert.i = getelementptr inbounds i8, ptr %43, i64 -4
  %.pre.i = load i32, ptr %.phi.trans.insert.i, align 4
  br label %59

59:                                               ; preds = %.loopexit99, %._crit_edge
  %60 = phi i32 [ %.pre.i, %.loopexit99 ], [ 8, %._crit_edge ]
  %.0.i = phi ptr [ %58, %.loopexit99 ], [ %56, %._crit_edge ]
  %61 = load i32, ptr %.0.i, align 4
  %62 = icmp eq i32 %61, %60
  br i1 %62, label %63, label %77

63:                                               ; preds = %59
  %64 = getelementptr inbounds i8, ptr %.0.i, i64 4
  %65 = shl i32 %60, 1
  %66 = zext i32 %65 to i64
  %67 = shl nuw nsw i64 %66, 3
  %68 = or disjoint i64 %67, 8
  %69 = tail call ptr @calloc_arena(i64 noundef %68) #8
  %70 = getelementptr inbounds i8, ptr %69, i64 4
  store i32 %65, ptr %70, align 4
  %71 = load i32, ptr %64, align 4
  %72 = zext i32 %71 to i64
  %73 = shl nuw nsw i64 %72, 3
  %74 = add nuw nsw i64 %73, 8
  tail call void @llvm.memcpy.p0.p0.i64(ptr noundef nonnull align 4 dereferenceable(1) %69, ptr noundef nonnull align 4 dereferenceable(1) %.0.i, i64 %74, i1 false)
  %75 = load i32, ptr %70, align 4
  %76 = shl i32 %75, 1
  store i32 %76, ptr %70, align 4
  %.pre18.i = load i32, ptr %69, align 4
  br label %77

77:                                               ; preds = %59, %63
  %78 = phi i32 [ %.pre18.i, %63 ], [ %61, %59 ]
  %.1.i = phi ptr [ %69, %63 ], [ %.0.i, %59 ]
  %79 = add i32 %78, 1
  store i32 %79, ptr %.1.i, align 4
  %80 = getelementptr inbounds i8, ptr %.1.i, i64 8
  store ptr %80, ptr %1, align 8
  %81 = load ptr, ptr %6, align 8
  %82 = load i32, ptr %.1.i, align 4
  %83 = add i32 %82, -1
  %84 = zext i32 %83 to i64
  %85 = getelementptr inbounds ptr, ptr %80, i64 %84
  store ptr %81, ptr %85, align 8
  br label %.backedge

.loopexit:                                        ; preds = %.outer, %.backedge, %10, %8, %53, %36, %30, %25, %18
  %.038 = phi i1 [ false, %53 ], [ false, %25 ], [ false, %36 ], [ false, %30 ], [ false, %18 ], [ false, %8 ], [ %.not49, %.backedge ], [ true, %10 ], [ false, %.outer ]
  ret i1 %.038
}